target datalayout = "e-m:e-p270:32:32-p271:32:32-p272:64:64-i64:64-i128:128-f80:128-n8:16:32:64-S128"
target triple = "x86_64-pc-linux-gnu"

; Function Attrs: null_pointer_is_valid sspstrong uwtable
define internal i32 @tcp_dissect_pdc(ptr noundef %0, ptr noundef %1, ptr noundef %2, ptr noundef %3) #0 {
  %5 = alloca ptr, align 8
  %6 = alloca ptr, align 8
  %7 = alloca ptr, align 8
  %8 = alloca ptr, align 8
  %9 = alloca i8, align 1
  %10 = alloca i8, align 1
  store ptr %0, ptr %5, align 8
  store ptr %1, ptr %6, align 8
  store ptr %2, ptr %7, align 8
  store ptr %3, ptr %8, align 8
  call void @llvm.lifetime.start.p0(i64 1, ptr %9) #4
  call void @llvm.lifetime.start.p0(i64 1, ptr %10) #4
  %11 = load ptr, ptr %5, align 8
  %12 = call zeroext i8 @tvb_get_uint8(ptr noundef %11, i32 noundef 1)
  store i8 %12, ptr %9, align 1
  %13 = load i8, ptr %9, align 1
  %14 = zext i8 %13 to i32
  switch i32 %14, label %22 [
    i32 1, label %15
    i32 2, label %16
    i32 3, label %17
    i32 4, label %18
    i32 5, label %19
    i32 6, label %20
    i32 8, label %21
  ]

15:                                               ; preds = %4
  store i8 2, ptr %10, align 1
  br label %23

16:                                               ; preds = %4
  store i8 2, ptr %10, align 1
  br label %23

17:                                               ; preds = %4
  store i8 2, ptr %10, align 1
  br label %23

18:                                               ; preds = %4
  store i8 4, ptr %10, align 1
  br label %23

19:                                               ; preds = %4
  store i8 8, ptr %10, align 1
  br label %23

20:                                               ; preds = %4
  store i8 2, ptr %10, align 1
  br label %23

21:                                               ; preds = %4
  store i8 2, ptr %10, align 1
  br label %23

22:                                               ; preds = %4
  store i8 2, ptr %10, align 1
  br label %23

23:                                               ; preds = %22, %21, %20, %19, %18, %17, %16, %15
  %24 = load ptr, ptr %5, align 8
  %25 = load ptr, ptr %6, align 8
  %26 = load ptr, ptr %7, align 8
  %27 = load i8, ptr %10, align 1
  %28 = zext i8 %27 to i32
  call void @tcp_dissect_pdus(ptr noundef %24, ptr noundef %25, ptr noundef %26, i1 noundef zeroext true, i32 noundef %28, ptr noundef @get_pdc_message_len, ptr noundef @dissect_pdc, ptr noundef null)
  %29 = load ptr, ptr %5, align 8
  %30 = call i32 @tvb_captured_length(ptr noundef %29)
  call void @llvm.lifetime.end.p0(i64 1, ptr %10) #4
  call void @llvm.lifetime.end.p0(i64 1, ptr %9) #4
  ret i32 %30
}