; Function Attrs: null_pointer_is_valid sspstrong uwtable
define internal i32 @tcp_dissect_pdc(ptr noundef %0, ptr noundef %1, ptr noundef %2, ptr readnone captures(none) %3) #0 {
  %5 = tail call zeroext i8 @tvb_get_uint8(ptr noundef %0, i32 noundef 1)
  %switch.selectcmp = icmp eq i8 %5, 4
  %switch.select = select i1 %switch.selectcmp, i32 4, i32 2
  %switch.selectcmp6 = icmp eq i8 %5, 5
  %switch.select7 = select i1 %switch.selectcmp6, i32 8, i32 %switch.select
  tail call void @tcp_dissect_pdus(ptr noundef %0, ptr noundef %1, ptr noundef %2, i1 noundef zeroext true, i32 noundef %switch.select7, ptr noundef nonnull @get_pdc_message_len, ptr noundef nonnull @dissect_pdc, ptr noundef null)
  %6 = tail call i32 @tvb_captured_length(ptr noundef %0)
  ret i32 %6
}